; Function Attrs: nounwind uwtable
define range(i64 -1, -9223372036854775808) i64 @H5VL__get_connector_id_by_name(ptr noundef %0, i1 noundef zeroext %1) local_unnamed_addr #0 {
  %3 = alloca %struct.H5VL_get_connector_ud_t, align 8
  call void @llvm.lifetime.start.p0(i64 24, ptr nonnull %3)
  store i32 0, ptr %3, align 8
  %4 = getelementptr inbounds i8, ptr %3, i64 8
  store ptr %0, ptr %4, align 8
  %5 = getelementptr inbounds i8, ptr %3, i64 16
  store i64 -1, ptr %5, align 8
  %6 = call i32 @H5I_iterate(i32 noundef 9, ptr noundef nonnull @H5VL__get_connector_cb, ptr noundef nonnull %3, i1 noundef zeroext true) #10
  %7 = icmp slt i32 %6, 0
  br i1 %7, label %H5VL__peek_connector_id_by_name.exit.thread, label %H5VL__peek_connector_id_by_name.exit

H5VL__peek_connector_id_by_name.exit.thread:      ; preds = %2
  %8 = load i64, ptr @H5E_VOL_g, align 8
  %9 = load i64, ptr @H5E_BADITER_g, align 8
  %10 = call i32 (ptr, ptr, i32, i64, i64, ptr, ...) @H5E_printf_stack(ptr noundef nonnull @.str.2, ptr noundef nonnull @__func__.H5VL__peek_connector_id_by_name, i32 noundef 1581, i64 noundef %8, i64 noundef %9, ptr noundef nonnull @.str.69) #10
  call void @llvm.lifetime.end.p0(i64 24, ptr nonnull %3)
  br label %13

H5VL__peek_connector_id_by_name.exit:             ; preds = %2
  %11 = load i64, ptr %5, align 8
  call void @llvm.lifetime.end.p0(i64 24, ptr nonnull %3)
  %12 = icmp slt i64 %11, 0
  br i1 %12, label %13, label %17

13:                                               ; preds = %H5VL__peek_connector_id_by_name.exit.thread, %H5VL__peek_connector_id_by_name.exit
  %14 = load i64, ptr @H5E_VOL_g, align 8
  %15 = load i64, ptr @H5E_BADITER_g, align 8
  %16 = call i32 (ptr, ptr, i32, i64, i64, ptr, ...) @H5E_printf_stack(ptr noundef nonnull @.str.2, ptr noundef nonnull @__func__.H5VL__get_connector_id_by_name, i32 noundef 1514, i64 noundef %14, i64 noundef %15, ptr noundef nonnull @.str.71) #10
  br label %24

17:                                               ; preds = %H5VL__peek_connector_id_by_name.exit
  %18 = call i32 @H5I_inc_ref(i64 noundef %11, i1 noundef zeroext %1) #10
  %19 = icmp slt i32 %18, 0
  br i1 %19, label %20, label %24

20:                                               ; preds = %17
  %21 = load i64, ptr @H5E_FILE_g, align 8
  %22 = load i64, ptr @H5E_CANTINC_g, align 8
  %23 = call i32 (ptr, ptr, i32, i64, i64, ptr, ...) @H5E_printf_stack(ptr noundef nonnull @.str.2, ptr noundef nonnull @__func__.H5VL__get_connector_id_by_name, i32 noundef 1518, i64 noundef %21, i64 noundef %22, ptr noundef nonnull @.str.44) #10
  br label %24

24:                                               ; preds = %17, %20, %13
  %.0 = phi i64 [ -1, %13 ], [ -1, %20 ], [ %11, %17 ]
  ret i64 %.0
}